ccopy_reg
_reconstructor
p0
(csklearn.preprocessing.label
LabelEncoder
p1
c__builtin__
object
p2
Ntp3
Rp4
(dp5
S'classes_'
p6
cnumpy.core.multiarray
_reconstruct
p7
(cnumpy
ndarray
p8
(I0
tp9
S'b'
p10
tp11
Rp12
(I1
(I9
tp13
cnumpy
dtype
p14
(S'S7'
p15
I0
I1
tp16
Rp17
(I3
S'|'
p18
NNNI7
I1
I0
tp19
bI00
S'aakash\x00abhinavadrian\x00bagariabhatia\x00modi\x00\x00\x00rathi\x00\x00trisha\x00unknown'
p20
tp21
bsS'_sklearn_version'
p22
S'0.19.2'
p23
sb.